; Function Attrs: mustprogress uwtable
define hidden void @_ZNK6Assimp3IFC8TempMesh24ComputeLastPolygonNormalEb(ptr dead_on_unwind noalias writable writeonly sret(%class.aiVector3t) align 8 captures(none) %0, ptr noundef nonnull readonly align 8 captures(none) dereferenceable(48) %1, i1 noundef zeroext %2) local_unnamed_addr #7 align 2 {
  %4 = getelementptr inbounds nuw i8, ptr %1, i64 8
  %5 = load ptr, ptr %4, align 8
  %6 = load ptr, ptr %1, align 8
  %7 = ptrtoint ptr %5 to i64
  %8 = ptrtoint ptr %6 to i64
  %9 = sub i64 %7, %8
  %10 = sdiv exact i64 %9, 24
  %11 = getelementptr inbounds nuw i8, ptr %1, i64 32
  %12 = load ptr, ptr %11, align 8
  %13 = getelementptr inbounds i8, ptr %12, i64 -4
  %14 = load i32, ptr %13, align 4
  %15 = zext i32 %14 to i64
  %16 = sub nsw i64 %10, %15
  %17 = getelementptr inbounds nuw %class.aiVector3t, ptr %6, i64 %16
  tail call void @_ZN6Assimp3IFC8TempMesh20ComputePolygonNormalEPK10aiVector3tIdEmb(ptr dead_on_unwind writable sret(%class.aiVector3t) align 8 %0, ptr noundef nonnull %17, i64 noundef %15, i1 noundef zeroext %2)
  ret void
}